; Function Attrs: nofree norecurse nosync nounwind memory(argmem: readwrite) uwtable
define i64 @Extra_Truth6MinimumRoundMany(i64 noundef %0, ptr noundef readonly captures(none) %1, ptr noundef captures(none) %2, ptr noundef captures(none) %3) local_unnamed_addr #5 {
  br label %5

5:                                                ; preds = %109, %4
  %.0 = phi i64 [ %0, %4 ], [ %.2, %109 ]
  %6 = load i32, ptr %1, align 4, !tbaa !8
  br label %7

7:                                                ; preds = %5, %108
  %indvars.iv = phi i64 [ 0, %5 ], [ %indvars.iv.next, %108 ]
  %.122 = phi i64 [ %.0, %5 ], [ %.2, %108 ]
  %.01720 = phi i32 [ %6, %5 ], [ %.118, %108 ]
  %indvars.iv.next = add nuw nsw i64 %indvars.iv, 1
  %8 = getelementptr inbounds nuw i32, ptr %1, i64 %indvars.iv.next
  %9 = load i32, ptr %8, align 4, !tbaa !8
  %10 = icmp eq i32 %.01720, %9
  br i1 %10, label %11, label %108

11:                                               ; preds = %7
  %12 = getelementptr inbounds nuw [6 x i64], ptr @Extra_Truth6ChangePhase.Truth6, i64 0, i64 %indvars.iv
  %13 = load i64, ptr %12, align 8, !tbaa !10
  %14 = xor i64 %13, -1
  %15 = and i64 %.122, %14
  %16 = trunc nuw nsw i64 %indvars.iv to i32
  %17 = shl nuw nsw i32 1, %16
  %18 = zext nneg i32 %17 to i64
  %19 = shl i64 %15, %18
  %20 = and i64 %13, %.122
  %21 = lshr i64 %20, %18
  %22 = or i64 %19, %21
  %23 = icmp ult i64 %22, %.122
  %spec.select.i = tail call i64 @llvm.umin.i64(i64 %22, i64 %.122)
  %spec.select61.i = zext i1 %23 to i32
  %24 = getelementptr inbounds nuw [6 x i64], ptr @Extra_Truth6ChangePhase.Truth6, i64 0, i64 %indvars.iv.next
  %25 = load i64, ptr %24, align 8, !tbaa !10
  %26 = xor i64 %25, -1
  %27 = and i64 %.122, %26
  %28 = shl nuw nsw i32 2, %16
  %29 = zext nneg i32 %28 to i64
  %30 = shl i64 %27, %29
  %31 = and i64 %25, %.122
  %32 = lshr i64 %31, %29
  %33 = or i64 %30, %32
  %34 = icmp ult i64 %33, %spec.select.i
  %.147.i = tail call i64 @llvm.umin.i64(i64 %33, i64 %spec.select.i)
  %.1.i = select i1 %34, i32 2, i32 %spec.select61.i
  %35 = and i64 %33, %14
  %36 = shl i64 %35, %18
  %37 = and i64 %33, %13
  %38 = lshr i64 %37, %18
  %39 = or i64 %36, %38
  %40 = icmp ult i64 %39, %.147.i
  %.248.i = tail call i64 @llvm.umin.i64(i64 %39, i64 %.147.i)
  %.2.i = select i1 %40, i32 3, i32 %.1.i
  %41 = getelementptr inbounds nuw [5 x [3 x i64]], ptr @Extra_Truth6SwapAdjacent.PMasks, i64 0, i64 %indvars.iv
  %42 = load i64, ptr %41, align 8, !tbaa !10
  %43 = and i64 %42, %.122
  %44 = getelementptr inbounds nuw i8, ptr %41, i64 8
  %45 = load i64, ptr %44, align 8, !tbaa !10
  %46 = and i64 %45, %.122
  %47 = shl i64 %46, %18
  %48 = or i64 %47, %43
  %49 = getelementptr inbounds nuw i8, ptr %41, i64 16
  %50 = load i64, ptr %49, align 8, !tbaa !10
  %51 = and i64 %50, %.122
  %52 = lshr i64 %51, %18
  %53 = or i64 %48, %52
  %54 = icmp ult i64 %53, %.248.i
  %.349.i = tail call i64 @llvm.umin.i64(i64 %53, i64 %.248.i)
  %.3.i = select i1 %54, i32 4, i32 %.2.i
  %55 = and i64 %53, %14
  %56 = shl i64 %55, %18
  %57 = and i64 %53, %13
  %58 = lshr i64 %57, %18
  %59 = or i64 %56, %58
  %60 = icmp ult i64 %59, %.349.i
  %.450.i = tail call i64 @llvm.umin.i64(i64 %59, i64 %.349.i)
  %.4.i = select i1 %60, i32 6, i32 %.3.i
  %61 = and i64 %53, %26
  %62 = shl i64 %61, %29
  %63 = and i64 %53, %25
  %64 = lshr i64 %63, %29
  %65 = or i64 %62, %64
  %66 = icmp ult i64 %65, %.450.i
  %.551.i = tail call i64 @llvm.umin.i64(i64 %65, i64 %.450.i)
  %.5.i = select i1 %66, i32 5, i32 %.4.i
  %67 = and i64 %65, %14
  %68 = shl i64 %67, %18
  %69 = and i64 %65, %13
  %70 = lshr i64 %69, %18
  %71 = or i64 %68, %70
  %72 = icmp ult i64 %71, %.551.i
  %73 = load i32, ptr %3, align 4, !tbaa !8
  br i1 %72, label %74, label %86

74:                                               ; preds = %11
  %75 = shl nuw nsw i32 3, %16
  %76 = xor i32 %73, %75
  %77 = getelementptr inbounds nuw i8, ptr %2, i64 %indvars.iv
  %78 = load i8, ptr %77, align 1, !tbaa !3
  %79 = getelementptr inbounds nuw i8, ptr %2, i64 %indvars.iv.next
  %80 = load i8, ptr %79, align 1, !tbaa !3
  store i8 %80, ptr %77, align 1, !tbaa !3
  store i8 %78, ptr %79, align 1, !tbaa !3
  %81 = lshr i32 %76, %16
  %82 = trunc nuw nsw i64 %indvars.iv.next to i32
  %83 = lshr i32 %76, %82
  %84 = xor i32 %81, %83
  %85 = and i32 %84, 1
  %.not.i.i = icmp eq i32 %85, 0
  %spec.select65.i = select i1 %.not.i.i, i32 %76, i32 %73
  br label %Extra_Truth6MinimumRoundOne.exit

86:                                               ; preds = %11
  %87 = icmp samesign ult i32 %.5.i, 4
  br i1 %87, label %88, label %91

88:                                               ; preds = %86
  %89 = shl nuw nsw i32 %.5.i, %16
  %90 = xor i32 %89, %73
  br label %Extra_Truth6MinimumRoundOne.exit

91:                                               ; preds = %86
  %92 = add nsw i32 %.5.i, -4
  %93 = shl nuw nsw i32 %92, %16
  %94 = xor i32 %93, %73
  %95 = getelementptr inbounds nuw i8, ptr %2, i64 %indvars.iv
  %96 = load i8, ptr %95, align 1, !tbaa !3
  %97 = getelementptr inbounds nuw i8, ptr %2, i64 %indvars.iv.next
  %98 = load i8, ptr %97, align 1, !tbaa !3
  store i8 %98, ptr %95, align 1, !tbaa !3
  store i8 %96, ptr %97, align 1, !tbaa !3
  %99 = lshr i32 %94, %16
  %100 = trunc nuw nsw i64 %indvars.iv.next to i32
  %101 = lshr i32 %94, %100
  %102 = xor i32 %99, %101
  %103 = and i32 %102, 1
  %.not.i62.i = icmp eq i32 %103, 0
  br i1 %.not.i62.i, label %Extra_Truth6MinimumRoundOne.exit, label %104

104:                                              ; preds = %91
  %105 = xor i32 %92, 3
  %106 = shl i32 %105, %16
  %107 = xor i32 %106, %73
  br label %Extra_Truth6MinimumRoundOne.exit

Extra_Truth6MinimumRoundOne.exit:                 ; preds = %74, %88, %91, %104
  %storemerge.i = phi i32 [ %90, %88 ], [ %107, %104 ], [ %94, %91 ], [ %spec.select65.i, %74 ]
  %.052.i = phi i64 [ %.551.i, %88 ], [ %.551.i, %104 ], [ %.551.i, %91 ], [ %71, %74 ]
  store i32 %storemerge.i, ptr %3, align 4, !tbaa !8
  br label %108

108:                                              ; preds = %7, %Extra_Truth6MinimumRoundOne.exit
  %.118 = phi i32 [ %.01720, %Extra_Truth6MinimumRoundOne.exit ], [ %9, %7 ]
  %.2 = phi i64 [ %.052.i, %Extra_Truth6MinimumRoundOne.exit ], [ %.122, %7 ]
  %exitcond.not = icmp eq i64 %indvars.iv.next, 5
  br i1 %exitcond.not, label %109, label %7, !llvm.loop !12

109:                                              ; preds = %108
  %.not = icmp eq i64 %.0, %.2
  br i1 %.not, label %110, label %5, !llvm.loop !13

110:                                              ; preds = %109
  ret i64 %.0
}